target datalayout = "e-m:e-p270:32:32-p271:32:32-p272:64:64-i64:64-i128:128-f80:128-n8:16:32:64-S128"
target triple = "x86_64-pc-linux-gnu"

%struct.bufferevent = type { ptr, ptr, %struct.event, %struct.event, ptr, ptr, %struct.event_watermark, %struct.event_watermark, ptr, ptr, ptr, ptr, %struct.timeval, %struct.timeval, i16 }
%struct.event = type { %struct.event_callback, %union.anon.0, i32, i16, i16, ptr, %union.anon.2, %struct.timeval }
%union.anon.0 = type { %struct.anon.1 }
%struct.anon.1 = type { ptr, ptr }
%union.anon.2 = type { %struct.anon.3 }
%struct.anon.3 = type { %struct.anon.4, %struct.timeval }
%struct.anon.4 = type { ptr, ptr }
%struct.event_watermark = type { i64, i64 }
%struct.timeval = type { i64, i64 }
%struct.event_callback = type { %struct.anon, i16, i8, i8, %union.anon, ptr }
%struct.anon = type { ptr, ptr }
%union.anon = type { ptr }

; Function Attrs: nounwind uwtable
define i32 @bufferevent_add_event_(ptr noundef %0, ptr noundef %1) #0 {
  %3 = alloca i32, align 4
  %4 = alloca ptr, align 8
  %5 = alloca ptr, align 8
  store ptr %0, ptr %4, align 8
  store ptr %1, ptr %5, align 8
  %6 = load ptr, ptr %5, align 8
  %7 = getelementptr inbounds nuw %struct.timeval, ptr %6, i32 0, i32 0
  %8 = load i64, ptr %7, align 8
  %9 = icmp ne i64 %8, 0
  br i1 %9, label %18, label %10

10:                                               ; preds = %2
  %11 = load ptr, ptr %5, align 8
  %12 = getelementptr inbounds nuw %struct.timeval, ptr %11, i32 0, i32 1
  %13 = load i64, ptr %12, align 8
  %14 = icmp ne i64 %13, 0
  br i1 %14, label %18, label %15

15:                                               ; preds = %10
  %16 = load ptr, ptr %4, align 8
  %17 = call i32 @event_add(ptr noundef %16, ptr noundef null)
  store i32 %17, ptr %3, align 4
  br label %22

18:                                               ; preds = %10, %2
  %19 = load ptr, ptr %4, align 8
  %20 = load ptr, ptr %5, align 8
  %21 = call i32 @event_add(ptr noundef %19, ptr noundef %20)
  store i32 %21, ptr %3, align 4
  br label %22

22:                                               ; preds = %18, %15
  %23 = load i32, ptr %3, align 4
  ret i32 %23
}

; Function Attrs: nounwind uwtable
define i32 @bufferevent_generic_adj_existing_timeouts_(ptr noundef %0) #0 {
  %2 = alloca ptr, align 8
  %3 = alloca i32, align 4
  store ptr %0, ptr %2, align 8
  call void @llvm.lifetime.start.p0(i64 4, ptr %3) #7
  store i32 0, ptr %3, align 4
  %4 = load ptr, ptr %2, align 8
  %5 = getelementptr inbounds nuw %struct.bufferevent, ptr %4, i32 0, i32 2
  %6 = call i32 @event_pending(ptr noundef %5, i16 noundef signext 2, ptr noundef null)
  %7 = icmp ne i32 %6, 0
  br i1 %7, label %8, label %34

8:                                                ; preds = %1
  %9 = load ptr, ptr %2, align 8
  %10 = getelementptr inbounds nuw %struct.bufferevent, ptr %9, i32 0, i32 12
  %11 = getelementptr inbounds nuw %struct.timeval, ptr %10, i32 0, i32 0
  %12 = load i64, ptr %11, align 8
  %13 = icmp ne i64 %12, 0
  br i1 %13, label %20, label %14

14:                                               ; preds = %8
  %15 = load ptr, ptr %2, align 8
  %16 = getelementptr inbounds nuw %struct.bufferevent, ptr %15, i32 0, i32 12
  %17 = getelementptr inbounds nuw %struct.timeval, ptr %16, i32 0, i32 1
  %18 = load i64, ptr %17, align 8
  %19 = icmp ne i64 %18, 0
  br i1 %19, label %20, label %29

20:                                               ; preds = %14, %8
  %21 = load ptr, ptr %2, align 8
  %22 = getelementptr inbounds nuw %struct.bufferevent, ptr %21, i32 0, i32 2
  %23 = load ptr, ptr %2, align 8
  %24 = getelementptr inbounds nuw %struct.bufferevent, ptr %23, i32 0, i32 12
  %25 = call i32 @bufferevent_add_event_(ptr noundef %22, ptr noundef %24)
  %26 = icmp slt i32 %25, 0
  br i1 %26, label %27, label %28

27:                                               ; preds = %20
  store i32 -1, ptr %3, align 4
  br label %28

28:                                               ; preds = %27, %20
  br label %33

29:                                               ; preds = %14
  %30 = load ptr, ptr %2, align 8
  %31 = getelementptr inbounds nuw %struct.bufferevent, ptr %30, i32 0, i32 2
  %32 = call i32 @event_remove_timer(ptr noundef %31)
  br label %33

33:                                               ; preds = %29, %28
  br label %34

34:                                               ; preds = %33, %1
  %35 = load ptr, ptr %2, align 8
  %36 = getelementptr inbounds nuw %struct.bufferevent, ptr %35, i32 0, i32 3
  %37 = call i32 @event_pending(ptr noundef %36, i16 noundef signext 4, ptr noundef null)
  %38 = icmp ne i32 %37, 0
  br i1 %38, label %39, label %65

39:                                               ; preds = %34
  %40 = load ptr, ptr %2, align 8
  %41 = getelementptr inbounds nuw %struct.bufferevent, ptr %40, i32 0, i32 13
  %42 = getelementptr inbounds nuw %struct.timeval, ptr %41, i32 0, i32 0
  %43 = load i64, ptr %42, align 8
  %44 = icmp ne i64 %43, 0
  br i1 %44, label %51, label %45

45:                                               ; preds = %39
  %46 = load ptr, ptr %2, align 8
  %47 = getelementptr inbounds nuw %struct.bufferevent, ptr %46, i32 0, i32 13
  %48 = getelementptr inbounds nuw %struct.timeval, ptr %47, i32 0, i32 1
  %49 = load i64, ptr %48, align 8
  %50 = icmp ne i64 %49, 0
  br i1 %50, label %51, label %60

51:                                               ; preds = %45, %39
  %52 = load ptr, ptr %2, align 8
  %53 = getelementptr inbounds nuw %struct.bufferevent, ptr %52, i32 0, i32 3
  %54 = load ptr, ptr %2, align 8
  %55 = getelementptr inbounds nuw %struct.bufferevent, ptr %54, i32 0, i32 13
  %56 = call i32 @bufferevent_add_event_(ptr noundef %53, ptr noundef %55)
  %57 = icmp slt i32 %56, 0
  br i1 %57, label %58, label %59

58:                                               ; preds = %51
  store i32 -1, ptr %3, align 4
  br label %59

59:                                               ; preds = %58, %51
  br label %64

60:                                               ; preds = %45
  %61 = load ptr, ptr %2, align 8
  %62 = getelementptr inbounds nuw %struct.bufferevent, ptr %61, i32 0, i32 3
  %63 = call i32 @event_remove_timer(ptr noundef %62)
  br label %64

64:                                               ; preds = %60, %59
  br label %65

65:                                               ; preds = %64, %34
  %66 = load i32, ptr %3, align 4
  call void @llvm.lifetime.end.p0(i64 4, ptr %3) #7
  ret i32 %66
}