; Function Attrs: nounwind uwtable
define range(i32 -1, 1) i32 @bufferevent_generic_adj_existing_timeouts_(ptr noundef %0) local_unnamed_addr #0 {
  %2 = getelementptr inbounds nuw i8, ptr %0, i64 16
  %3 = tail call i32 @event_pending(ptr noundef nonnull %2, i16 noundef signext 2, ptr noundef null) #7
  %.not = icmp eq i32 %3, 0
  br i1 %.not, label %13, label %4

4:                                                ; preds = %1
  %5 = getelementptr inbounds nuw i8, ptr %0, i64 336
  %6 = load i64, ptr %5, align 8
  %.not12 = icmp eq i64 %6, 0
  br i1 %.not12, label %7, label %bufferevent_add_event_.exit

7:                                                ; preds = %4
  %8 = getelementptr inbounds nuw i8, ptr %0, i64 344
  %9 = load i64, ptr %8, align 8
  %.not13 = icmp eq i64 %9, 0
  br i1 %.not13, label %11, label %bufferevent_add_event_.exit

bufferevent_add_event_.exit:                      ; preds = %4, %7
  %10 = tail call i32 @event_add(ptr noundef nonnull %2, ptr noundef nonnull %5) #7
  %.lobit = ashr i32 %10, 31
  br label %13

11:                                               ; preds = %7
  %12 = tail call i32 @event_remove_timer(ptr noundef nonnull %2) #7
  br label %13

13:                                               ; preds = %bufferevent_add_event_.exit, %11, %1
  %.0 = phi i32 [ 0, %11 ], [ 0, %1 ], [ %.lobit, %bufferevent_add_event_.exit ]
  %14 = getelementptr inbounds nuw i8, ptr %0, i64 136
  %15 = tail call i32 @event_pending(ptr noundef nonnull %14, i16 noundef signext 4, ptr noundef null) #7
  %.not14 = icmp eq i32 %15, 0
  br i1 %.not14, label %25, label %16

16:                                               ; preds = %13
  %17 = getelementptr inbounds nuw i8, ptr %0, i64 352
  %18 = load i64, ptr %17, align 8
  %.not15 = icmp eq i64 %18, 0
  br i1 %.not15, label %19, label %bufferevent_add_event_.exit21

19:                                               ; preds = %16
  %20 = getelementptr inbounds nuw i8, ptr %0, i64 360
  %21 = load i64, ptr %20, align 8
  %.not16 = icmp eq i64 %21, 0
  br i1 %.not16, label %23, label %bufferevent_add_event_.exit21

bufferevent_add_event_.exit21:                    ; preds = %16, %19
  %22 = tail call i32 @event_add(ptr noundef nonnull %14, ptr noundef nonnull %17) #7
  %.inv = icmp sgt i32 %22, -1
  %spec.select17 = select i1 %.inv, i32 %.0, i32 -1
  br label %25

23:                                               ; preds = %19
  %24 = tail call i32 @event_remove_timer(ptr noundef nonnull %14) #7
  br label %25

25:                                               ; preds = %bufferevent_add_event_.exit21, %23, %13
  %.1 = phi i32 [ %.0, %23 ], [ %.0, %13 ], [ %spec.select17, %bufferevent_add_event_.exit21 ]
  ret i32 %.1
}